Certificate:
    Data:
        Version: 3 (0x2)
        Serial Number:
            45:07:d9:87:9c:46:24:f4:08:6a:c2:c5:9a:1b:5b:ea
    Signature Algorithm: sha256WithRSAEncryption
        Issuer: C=JP, O=Example, CN=Root CA
        Validity
            Not Before: Jul 25 15:07:07 2018 GMT
            Not After : Jul 22 15:07:07 2028 GMT
        Subject: C=JP, O=Example, CN=OCSP Root Responder
        Subject Public Key Info:
            Public Key Algorithm: rsaEncryption
                Public-Key: (2048 bit)
                Modulus:
                    00:dc:64:03:f2:dc:86:33:23:14:4d:70:6e:75:a7:
                    1f:f2:ec:4a:5d:d5:b0:ea:6a:e3:5a:2b:c8:63:30:
                    e6:52:14:3d:86:7b:1a:74:39:da:73:03:55:d1:ef:
                    10:13:7b:d0:e1:37:48:f4:b0:e5:bb:93:db:13:01:
                    7d:c8:8a:2d:48:34:51:af:b3:f7:3e:46:dc:0d:ff:
                    3d:b9:d2:4d:0c:3c:35:cb:81:64:05:e4:ea:fa:8d:
                    6e:b0:c9:27:28:ab:1d:aa:87:29:e3:f5:b2:ed:3a:
                    cb:0e:00:b4:17:4f:fa:60:8c:f8:22:21:43:be:61:
                    e3:e9:17:87:44:96:b3:49:b9:da:3e:25:c6:e8:e6:
                    a7:37:26:25:08:3f:d4:b6:bf:67:aa:7f:a8:69:ce:
                    a4:9a:4a:47:5a:b4:90:05:b1:c2:ee:49:84:ff:00:
                    a0:3e:36:4e:16:26:44:ce:a7:eb:a3:78:fe:33:90:
                    9c:1b:46:fb:ba:56:41:1f:be:21:a2:42:dd:96:a8:
                    17:cc:3b:37:c5:84:63:24:1f:32:63:03:34:8a:78:
                    09:9c:44:41:56:a7:78:1e:59:d0:51:ed:bc:77:c1:
                    05:a3:bc:64:5d:29:ea:0a:cf:96:79:f5:91:54:ba:
                    69:7b:fe:7b:56:30:de:47:c6:1d:9a:e5:22:53:1d:
                    b8:d9
                Exponent: 65537 (0x10001)
        X509v3 extensions:
            X509v3 Authority Key Identifier: 
                keyid:32:11:9A:2F:33:F2:03:47:2D:A2:92:CC:E3:79:4E:36:BA:A2:2D:92

            X509v3 Basic Constraints: critical
                CA:FALSE
            X509v3 Extended Key Usage: 
                OCSP Signing
            OCSP No Check: 

            X509v3 Key Usage: critical
                Digital Signature
            X509v3 Subject Key Identifier: 
                7D:5D:7E:F8:29:D0:A0:C4:53:57:05:2B:08:68:6C:3F:68:8D:3E:42
    Signature Algorithm: sha256WithRSAEncryption
         3f:26:55:94:ac:9f:99:17:4a:b5:cf:39:c2:b9:21:eb:89:14:
         bf:0b:c2:67:a9:f1:9a:7d:b6:1d:f0:33:68:8b:0c:27:fb:d6:
         8b:83:9b:64:da:d4:89:37:b7:9b:09:62:2c:a9:3c:e7:e0:6b:
         97:14:a9:b0:57:c4:d7:dc:8a:71:d2:56:97:fa:11:c8:65:6a:
         10:83:b1:ab:69:7c:1f:6b:c4:f5:ca:ef:71:a3:ed:8d:50:ea:
         27:c1:88:cf:0c:7f:69:7a:a3:23:20:08:5c:db:2f:56:d4:55:
         f5:fe:65:4d:66:ad:fa:af:89:27:a5:e2:51:d7:67:c3:80:99:
         4e:78:ad:ef:35:fc:dc:02:9f:df:14:14:41:86:5b:78:a5:43:
         4c:6e:ca:ca:dd:c2:c0:80:35:c2:64:ed:47:2a:c3:65:d6:35:
         8e:64:c6:d3:f3:c2:37:26:a0:a9:28:27:78:15:b6:4e:11:1e:
         51:dc:29:f8:af:7c:8d:76:17:a8:08:ef:a1:a0:f4:af:ca:b7:
         86:c9:25:5d:0f:76:14:f5:97:fe:6f:be:07:4b:05:8f:a7:14:
         67:72:a1:27:59:c5:95:00:6f:d5:ec:c1:26:07:0c:aa:1a:a5:
         6e:06:f6:10:76:a2:ec:2c:1f:1f:6b:93:d0:45:18:e0:33:8d:
         eb:ac:cd:7a:a4:25:27:4e:e0:fc:93:b9:34:2e:f2:c7:c5:f7:
         42:8a:8e:44:4a:d6:12:e6:77:eb:2c:9b:d9:74:8d:1b:e7:e3:
         d0:bc:cf:7a:24:04:22:bd:b5:d5:68:ca:df:dc:c9:16:5b:18:
         bd:8b:43:5f:88:72:77:f3:a0:0c:f4:cf:26:c3:78:47:e4:bd:
         49:1a:5a:96:6e:33:3e:78:fd:a6:ef:1b:56:00:82:63:1d:5e:
         5b:4d:33:4e:79:f7:4a:72:39:06:76:ab:ad:ff:7c:65:98:7b:
         e2:17:67:ec:aa:7b:89:e0:2f:be:f2:17:31:24:67:0c:39:0c:
         53:6d:b0:c8:72:82:e0:18:8a:99:70:d6:b6:b8:08:ef:64:5d:
         17:c3:a0:6b:3d:77:44:ef:93:72:53:a0:d0:9f:65:d7:50:62:
         99:c2:63:75:e1:b5:43:6f:a0:5e:aa:56:b5:8a:f5:c9:97:83:
         9e:07:8d:a5:3d:bb:f9:76:41:d7:79:0b:27:c3:2b:94:54:fa:
         52:93:f4:f5:31:b9:99:38:07:b3:46:7b:e1:da:21:e5:24:f4:
         90:62:6a:8e:cd:ff:28:f0:f1:a0:89:3e:e0:d6:ee:44:20:11:
         41:8c:66:6b:3b:d8:cc:32:62:5e:50:69:88:9e:a5:e6:9c:38:
         26:e1:78:8c:dd:5e:f7:ae
-----BEGIN CERTIFICATE-----
MIIEgDCCAmigAwIBAgIQRQfZh5xGJPQIasLFmhtb6jANBgkqhkiG9w0BAQsFADAx
MQswCQYDVQQGEwJKUDEQMA4GA1UECgwHRXhhbXBsZTEQMA4GA1UEAwwHUm9vdCBD
QTAeFw0xODA3MjUxNTA3MDdaFw0yODA3MjIxNTA3MDdaMD0xCzAJBgNVBAYTAkpQ
MRAwDgYDVQQKDAdFeGFtcGxlMRwwGgYDVQQDDBNPQ1NQIFJvb3QgUmVzcG9uZGVy
MIIBIjANBgkqhkiG9w0BAQEFAAOCAQ8AMIIBCgKCAQEA3GQD8tyGMyMUTXBudacf
8uxKXdWw6mrjWivIYzDmUhQ9hnsadDnacwNV0e8QE3vQ4TdI9LDlu5PbEwF9yIot
SDRRr7P3PkbcDf89udJNDDw1y4FkBeTq+o1usMknKKsdqocp4/Wy7TrLDgC0F0/6
YIz4IiFDvmHj6ReHRJazSbnaPiXG6OanNyYlCD/Utr9nqn+oac6kmkpHWrSQBbHC
7kmE/wCgPjZOFiZEzqfro3j+M5CcG0b7ulZBH74hokLdlqgXzDs3xYRjJB8yYwM0
ingJnERBVqd4HlnQUe28d8EFo7xkXSnqCs+WefWRVLppe/57VjDeR8YdmuUiUx24
2QIDAQABo4GHMIGEMB8GA1UdIwQYMBaAFDIRmi8z8gNHLaKSzON5Tja6oi2SMAwG
A1UdEwEB/wQCMAAwEwYDVR0lBAwwCgYIKwYBBQUHAwkwDwYJKwYBBQUHMAEFBAIF
ADAOBgNVHQ8BAf8EBAMCB4AwHQYDVR0OBBYEFH1dfvgp0KDEU1cFKwhobD9ojT5C
MA0GCSqGSIb3DQEBCwUAA4ICAQA/JlWUrJ+ZF0q1zznCuSHriRS/C8JnqfGafbYd
8DNoiwwn+9aLg5tk2tSJN7ebCWIsqTzn4GuXFKmwV8TX3Ipx0laX+hHIZWoQg7Gr
aXwfa8T1yu9xo+2NUOonwYjPDH9peqMjIAhc2y9W1FX1/mVNZq36r4knpeJR12fD
gJlOeK3vNfzcAp/fFBRBhlt4pUNMbsrK3cLAgDXCZO1HKsNl1jWOZMbT88I3JqCp
KCd4FbZOER5R3Cn4r3yNdheoCO+hoPSvyreGySVdD3YU9Zf+b74HSwWPpxRncqEn
WcWVAG/V7MEmBwyqGqVuBvYQdqLsLB8fa5PQRRjgM43rrM16pCUnTuD8k7k0LvLH
xfdCio5EStYS5nfrLJvZdI0b5+PQvM96JAQivbXVaMrf3MkWWxi9i0NfiHJ386AM
9M8mw3hH5L1JGlqWbjM+eP2m7xtWAIJjHV5bTTNOefdKcjkGdqut/3xlmHviF2fs
qnuJ4C++8hcxJGcMOQxTbbDIcoLgGIqZcNa2uAjvZF0Xw6BrPXdE75NyU6DQn2XX
UGKZwmN14bVDb6Beqla1ivXJl4OeB42lPbv5dkHXeQsnwyuUVPpSk/T1MbmZOAez
Rnvh2iHlJPSQYmqOzf8o8PGgiT7g1u5EIBFBjGZrO9jMMmJeUGmInqXmnDgm4XiM
3V73rg==
-----END CERTIFICATE-----
