Certificate:
    Data:
        Version: 3 (0x2)
        Serial Number:
            2f:a0:42:3c:10:dc:23:85:e8:fd:83:78:84:82:78:ae
    Signature Algorithm: sha256WithRSAEncryption
        Issuer: C=JP, O=Example, CN=Sub CA
        Validity
            Not Before: Jul 26 15:06:04 2018 GMT
            Not After : Jul 26 15:06:04 2019 GMT
        Subject: C=JP, O=Example, CN=mycert.example.com
        Subject Public Key Info:
            Public Key Algorithm: rsaEncryption
                Public-Key: (2048 bit)
                Modulus:
                    00:de:88:62:ac:e8:22:7b:eb:3c:53:11:1d:b6:82:
                    b4:9c:46:6a:41:48:0f:82:34:a4:13:80:4d:cf:93:
                    58:b6:7e:22:15:d7:0e:f2:b2:02:19:63:0d:f5:b6:
                    32:21:96:19:48:b3:00:31:00:61:c4:fa:d1:31:7c:
                    8f:3d:32:08:f8:7a:19:de:f9:ac:66:ee:7f:21:e5:
                    a2:94:e7:eb:25:8d:49:68:e3:cb:d8:91:1c:75:7f:
                    e2:8a:68:be:99:9f:41:04:6c:81:55:ef:31:9a:66:
                    01:50:3a:b5:b9:13:29:45:bb:08:f1:4b:21:4b:5e:
                    7f:12:35:d8:35:54:bd:a0:1e:29:7d:1e:aa:a6:53:
                    fd:90:7d:ec:61:15:5c:29:09:03:cc:bb:fc:c4:59:
                    15:a2:3a:84:01:04:d8:10:de:f1:81:27:8e:79:96:
                    b9:4e:b2:e7:74:cd:b7:99:28:84:24:36:d0:70:02:
                    a5:11:1b:b3:cd:95:9c:b9:b3:67:49:18:96:43:8e:
                    45:de:6c:57:f9:97:d8:35:08:c9:a8:b6:63:0a:ba:
                    fc:4c:bc:e4:0a:70:d6:88:be:61:42:90:dc:a4:1b:
                    0d:f8:42:3e:54:a3:06:2d:01:5c:f9:86:37:0b:fd:
                    78:60:c1:54:dc:cd:12:6e:91:4d:13:1f:43:4d:40:
                    26:ad
                Exponent: 65537 (0x10001)
        X509v3 extensions:
            Authority Information Access: 
                CA Issuers - URI:http://sub-ca.example.com/sub-ca.crt
                OCSP - URI:http://ocsp.sub-ca.example.com:9081

            X509v3 Authority Key Identifier: 
                keyid:82:D3:D5:73:39:4E:F3:42:A3:03:A4:F9:02:DA:0E:6D:21:F3:28:A1

            X509v3 Basic Constraints: critical
                CA:FALSE
            X509v3 CRL Distribution Points: 

                Full Name:
                  URI:http://sub-ca.example.com/sub-ca.crl

            X509v3 Extended Key Usage: 
                TLS Web Client Authentication, TLS Web Server Authentication
            X509v3 Key Usage: critical
                Digital Signature, Key Encipherment
            X509v3 Subject Key Identifier: 
                43:2D:28:49:E5:7D:16:6F:0B:6B:81:8A:D6:3F:FD:31:59:63:9D:AC
            X509v3 Certificate Policies: 
                Policy: 1.3.6.1.4.1.13769.666.666.666.1.500.9.1
                Policy: 2.23.140.1.1

    Signature Algorithm: sha256WithRSAEncryption
         33:ef:33:44:65:5d:89:c7:9b:f4:a2:de:59:8c:9c:72:05:b8:
         fe:4e:64:11:a8:be:9f:2d:77:5d:95:02:5e:f7:8a:27:d3:b4:
         8b:c5:3a:00:46:64:da:d4:fb:5b:bd:6f:b5:0b:83:aa:5c:33:
         1a:2e:80:d2:e3:96:79:04:ab:4b:06:f9:cf:86:c8:0e:53:5c:
         22:fe:ab:a6:a0:2b:80:73:75:d4:77:36:71:4f:2c:d2:1f:b2:
         e6:1f:33:c6:ee:e5:e2:ff:6c:64:76:30:1e:0d:14:c8:5b:96:
         cc:1c:6e:18:ac:c4:aa:e2:1e:98:de:86:fa:4b:59:e7:1c:63:
         cb:0f:43:7f:d9:7d:81:6a:82:c4:8d:ee:26:77:65:74:9f:66:
         96:6b:0e:11:3a:d5:dd:49:90:44:7b:cb:de:cf:8d:be:00:7e:
         d6:ab:77:d2:f0:72:d2:44:9f:b6:c8:c8:18:d9:cd:0b:f9:69:
         43:4d:55:01:d5:f3:07:b9:8d:65:2b:86:f2:20:e9:52:2c:30:
         6c:0b:c1:3f:e8:c1:7a:98:6b:e2:4e:b8:26:bf:71:32:6a:5f:
         59:06:ab:b2:74:63:c1:b3:1b:be:ce:c9:91:ff:66:18:ba:c9:
         b0:93:cb:6f:21:42:99:7c:bc:42:09:f5:f7:bf:a5:68:68:e8:
         79:1b:23:88
-----BEGIN CERTIFICATE-----
MIIETTCCAzWgAwIBAgIQL6BCPBDcI4Xo/YN4hIJ4rjANBgkqhkiG9w0BAQsFADAw
MQswCQYDVQQGEwJKUDEQMA4GA1UECgwHRXhhbXBsZTEPMA0GA1UEAwwGU3ViIENB
MB4XDTE4MDcyNjE1MDYwNFoXDTE5MDcyNjE1MDYwNFowPDELMAkGA1UEBhMCSlAx
EDAOBgNVBAoMB0V4YW1wbGUxGzAZBgNVBAMMEm15Y2VydC5leGFtcGxlLmNvbTCC
ASIwDQYJKoZIhvcNAQEBBQADggEPADCCAQoCggEBAN6IYqzoInvrPFMRHbaCtJxG
akFID4I0pBOATc+TWLZ+IhXXDvKyAhljDfW2MiGWGUizADEAYcT60TF8jz0yCPh6
Gd75rGbufyHlopTn6yWNSWjjy9iRHHV/4opovpmfQQRsgVXvMZpmAVA6tbkTKUW7
CPFLIUtefxI12DVUvaAeKX0eqqZT/ZB97GEVXCkJA8y7/MRZFaI6hAEE2BDe8YEn
jnmWuU6y53TNt5kohCQ20HACpREbs82VnLmzZ0kYlkOORd5sV/mX2DUIyai2Ywq6
/Ey85Apw1oi+YUKQ3KQbDfhCPlSjBi0BXPmGNwv9eGDBVNzNEm6RTRMfQ01AJq0C
AwEAAaOCAVUwggFRMHEGCCsGAQUFBwEBBGUwYzAwBggrBgEFBQcwAoYkaHR0cDov
L3N1Yi1jYS5leGFtcGxlLmNvbS9zdWItY2EuY3J0MC8GCCsGAQUFBzABhiNodHRw
Oi8vb2NzcC5zdWItY2EuZXhhbXBsZS5jb206OTA4MTAfBgNVHSMEGDAWgBSC09Vz
OU7zQqMDpPkC2g5tIfMooTAMBgNVHRMBAf8EAjAAMDUGA1UdHwQuMCwwKqAooCaG
JGh0dHA6Ly9zdWItY2EuZXhhbXBsZS5jb20vc3ViLWNhLmNybDAdBgNVHSUEFjAU
BggrBgEFBQcDAgYIKwYBBQUHAwEwDgYDVR0PAQH/BAQDAgWgMB0GA1UdDgQWBBRD
LShJ5X0WbwtrgYrWP/0xWWOdrDAoBgNVHSAEITAfMBQGEisGAQQB60mFGoUahRoB
g3QJATAHBgVngQwBATANBgkqhkiG9w0BAQsFAAOCAQEAM+8zRGVdiceb9KLeWYyc
cgW4/k5kEai+ny13XZUCXveKJ9O0i8U6AEZk2tT7W71vtQuDqlwzGi6A0uOWeQSr
Swb5z4bIDlNcIv6rpqArgHN11Hc2cU8s0h+y5h8zxu7l4v9sZHYwHg0UyFuWzBxu
GKzEquIemN6G+ktZ5xxjyw9Df9l9gWqCxI3uJndldJ9mlmsOETrV3UmQRHvL3s+N
vgB+1qt30vBy0kSftsjIGNnNC/lpQ01VAdXzB7mNZSuG8iDpUiwwbAvBP+jBephr
4k64Jr9xMmpfWQarsnRjwbMbvs7Jkf9mGLrJsJPLbyFCmXy8Qgn197+laGjoeRsj
iA==
-----END CERTIFICATE-----
