Certificate:
    Data:
        Version: 3 (0x2)
        Serial Number:
            45:07:d9:87:9c:46:24:f4:08:6a:c2:c5:9a:1b:5b:e9
    Signature Algorithm: sha256WithRSAEncryption
        Issuer: C=JP, O=Example, CN=Root CA
        Validity
            Not Before: Jul 25 15:03:25 2018 GMT
            Not After : Jul 22 15:03:25 2028 GMT
        Subject: C=JP, O=Example, CN=Root CA
        Subject Public Key Info:
            Public Key Algorithm: rsaEncryption
                Public-Key: (4096 bit)
                Modulus:
                    00:c5:f3:c8:75:70:f0:5c:f9:f6:db:bc:67:60:26:
                    9e:30:21:27:08:37:43:d8:93:3d:8d:94:2e:7a:e5:
                    54:4f:23:0b:72:02:58:88:10:4c:a7:04:7f:ce:cc:
                    91:2f:c9:1b:9f:7e:07:50:6f:eb:06:d8:4e:f6:02:
                    10:12:04:af:56:2e:c1:b4:48:6b:51:51:f2:46:8a:
                    8d:3b:4f:1c:9c:77:f5:06:13:23:12:55:b4:33:af:
                    8c:06:a0:42:80:85:e9:ac:e7:44:99:f3:7d:c5:cf:
                    30:bb:ca:5a:d5:21:02:c2:77:e4:c4:0b:42:25:ff:
                    4e:f2:d0:14:15:6e:40:e0:e5:83:aa:21:ca:e2:e3:
                    38:7a:56:33:e4:89:05:c3:29:36:cf:69:b6:e3:9b:
                    ce:0e:18:28:da:2a:ce:e9:ad:23:74:09:27:d8:63:
                    dd:a9:b3:45:98:bf:16:68:d8:fb:6e:8e:49:b1:7e:
                    43:b5:6f:ed:eb:a2:12:00:c7:dc:3f:c9:78:91:78:
                    a9:a0:d3:16:e0:4d:b7:1d:26:1d:f5:b1:9b:ce:ab:
                    0a:95:2f:56:60:c9:c5:c1:8f:66:8b:0a:39:8e:15:
                    94:7a:9a:e3:a2:49:99:70:d4:cc:80:08:59:1c:80:
                    a8:ac:20:c3:ca:78:32:40:da:57:75:c9:8f:5b:e4:
                    71:56:0b:6a:42:69:4f:b2:1d:50:2c:20:0b:5c:d1:
                    a4:0a:ea:d9:b0:4d:fd:1b:1d:2d:66:cc:5e:87:d0:
                    b3:00:52:a4:e0:56:dd:6d:19:89:4f:f3:4a:1b:95:
                    34:7f:cf:e3:c0:53:66:2d:91:cd:54:bf:1b:60:0f:
                    e9:9c:af:7b:2b:76:a3:91:ae:ac:12:df:c5:cb:39:
                    8e:09:3a:c8:89:f6:80:48:b7:98:e1:b9:9d:fb:76:
                    1c:30:3f:a5:19:e5:6a:24:50:e9:53:93:61:c5:0d:
                    95:8d:f1:c7:03:79:75:47:62:06:60:9c:54:4c:eb:
                    f6:6d:6b:0e:b5:b3:91:5c:dd:a8:70:44:e8:f3:c7:
                    61:c2:89:f8:a3:6e:60:30:c0:95:fb:b8:da:a6:78:
                    cf:dc:3c:6a:0d:21:bf:e8:98:2a:b0:a9:38:5f:86:
                    8e:b5:57:96:b3:1c:04:d8:19:53:a2:d7:ad:fb:3c:
                    e3:a4:67:20:39:36:3b:1a:97:b1:26:a9:73:f3:1e:
                    20:3e:d7:e0:d4:32:a6:cc:4b:44:f2:62:5b:55:d2:
                    3c:dc:4e:84:0a:d7:4c:ca:3d:7f:db:83:55:df:af:
                    82:56:a0:64:ad:43:15:50:be:d8:92:ee:f9:6b:2d:
                    00:4c:cf:49:1e:14:19:26:e4:f0:f5:11:4a:03:fa:
                    b3:18:49
                Exponent: 65537 (0x10001)
        X509v3 extensions:
            X509v3 Basic Constraints: critical
                CA:TRUE
            X509v3 Key Usage: critical
                Certificate Sign, CRL Sign
            X509v3 Subject Key Identifier: 
                32:11:9A:2F:33:F2:03:47:2D:A2:92:CC:E3:79:4E:36:BA:A2:2D:92
    Signature Algorithm: sha256WithRSAEncryption
         46:3b:b7:01:31:63:50:3d:5b:38:31:0b:e1:94:51:ab:12:53:
         ce:7a:dd:56:f3:70:0e:bf:a1:83:21:38:92:3b:bf:21:92:26:
         ef:b6:b1:91:30:74:b2:a2:d5:78:34:cb:6e:bf:a5:15:74:b4:
         12:2c:75:37:d2:35:7f:db:47:92:a3:3b:ba:71:40:1e:19:ab:
         08:cc:19:63:6f:b1:96:dc:2b:df:c2:4f:2f:d9:35:2a:01:40:
         40:36:14:ad:64:85:ad:67:46:85:a7:7b:dd:ba:7a:04:1d:f3:
         77:f4:c5:ff:ea:ce:cd:e9:22:5e:17:92:60:49:3a:aa:f2:ea:
         6e:93:99:1d:e2:72:16:af:93:45:8a:28:9e:e1:6d:00:60:8c:
         53:1d:c1:e2:61:f3:b6:2a:cd:bf:a3:e9:a1:eb:8a:f8:07:fe:
         fa:4e:61:8b:b1:d1:0f:a3:78:5e:ce:3a:c7:e6:4c:f9:6f:63:
         16:ae:2b:c6:39:c9:b1:ef:44:81:55:25:c6:8c:37:81:3b:82:
         8b:78:5d:6c:3d:77:f7:45:42:d3:62:ca:32:c7:76:cb:9b:cb:
         25:87:bc:98:4a:d9:1b:08:bd:47:59:84:a2:0a:5e:f4:a8:6a:
         df:24:fd:64:a6:94:2d:6b:eb:73:8b:46:ab:0c:32:6b:d3:03:
         1d:17:71:dd:86:ca:c2:36:bb:c0:7c:ff:e0:ce:be:f6:d1:e6:
         30:3e:db:24:6e:95:b7:64:4c:61:27:05:b8:53:ac:4e:c3:e3:
         ef:61:b0:e5:d8:a1:1d:6d:b1:4c:56:d0:96:80:6a:8e:c6:38:
         82:eb:8a:1d:46:cb:0e:cb:f4:15:b3:67:7e:aa:d2:8a:c2:a4:
         b9:19:a9:79:0f:c1:8f:91:f5:4d:bb:d7:83:7a:98:67:fb:cb:
         63:68:22:c6:de:c3:32:ed:89:96:23:a1:1d:a7:1c:ab:88:eb:
         f3:48:4b:60:95:85:8a:3b:42:31:88:55:23:1f:8b:25:2c:14:
         44:84:b4:5b:7c:d3:0f:df:3a:13:0a:10:dc:a3:23:b0:dc:a9:
         e7:37:55:1e:d0:fb:c5:5d:bd:c1:18:09:84:84:ec:5e:ff:1f:
         70:23:dc:db:af:fb:9d:af:37:6c:c2:a6:04:a9:49:7c:7c:94:
         c5:08:df:76:5b:17:b3:b3:32:30:ca:16:e6:8f:e3:2c:46:e3:
         31:89:5f:c8:7c:eb:cd:c8:22:60:8f:8b:eb:37:2e:8f:aa:b3:
         fc:96:03:a8:39:f0:84:73:12:fb:01:e0:db:8f:32:8c:2c:84:
         67:bc:75:13:b5:02:5c:f9:63:f0:90:66:42:26:7f:19:26:2c:
         f6:79:02:31:03:da:5e:3c
-----BEGIN CERTIFICATE-----
MIIFLjCCAxagAwIBAgIQRQfZh5xGJPQIasLFmhtb6TANBgkqhkiG9w0BAQsFADAx
MQswCQYDVQQGEwJKUDEQMA4GA1UECgwHRXhhbXBsZTEQMA4GA1UEAwwHUm9vdCBD
QTAeFw0xODA3MjUxNTAzMjVaFw0yODA3MjIxNTAzMjVaMDExCzAJBgNVBAYTAkpQ
MRAwDgYDVQQKDAdFeGFtcGxlMRAwDgYDVQQDDAdSb290IENBMIICIjANBgkqhkiG
9w0BAQEFAAOCAg8AMIICCgKCAgEAxfPIdXDwXPn227xnYCaeMCEnCDdD2JM9jZQu
euVUTyMLcgJYiBBMpwR/zsyRL8kbn34HUG/rBthO9gIQEgSvVi7BtEhrUVHyRoqN
O08cnHf1BhMjElW0M6+MBqBCgIXprOdEmfN9xc8wu8pa1SECwnfkxAtCJf9O8tAU
FW5A4OWDqiHK4uM4elYz5IkFwyk2z2m245vODhgo2irO6a0jdAkn2GPdqbNFmL8W
aNj7bo5JsX5DtW/t66ISAMfcP8l4kXipoNMW4E23HSYd9bGbzqsKlS9WYMnFwY9m
iwo5jhWUeprjokmZcNTMgAhZHICorCDDyngyQNpXdcmPW+RxVgtqQmlPsh1QLCAL
XNGkCurZsE39Gx0tZsxeh9CzAFKk4FbdbRmJT/NKG5U0f8/jwFNmLZHNVL8bYA/p
nK97K3ajka6sEt/FyzmOCTrIifaASLeY4bmd+3YcMD+lGeVqJFDpU5NhxQ2VjfHH
A3l1R2IGYJxUTOv2bWsOtbORXN2ocETo88dhwon4o25gMMCV+7japnjP3DxqDSG/
6JgqsKk4X4aOtVeWsxwE2BlTotet+zzjpGcgOTY7GpexJqlz8x4gPtfg1DKmzEtE
8mJbVdI83E6ECtdMyj1/24NV36+CVqBkrUMVUL7Yku75ay0ATM9JHhQZJuTw9RFK
A/qzGEkCAwEAAaNCMEAwDwYDVR0TAQH/BAUwAwEB/zAOBgNVHQ8BAf8EBAMCAQYw
HQYDVR0OBBYEFDIRmi8z8gNHLaKSzON5Tja6oi2SMA0GCSqGSIb3DQEBCwUAA4IC
AQBGO7cBMWNQPVs4MQvhlFGrElPOet1W83AOv6GDITiSO78hkibvtrGRMHSyotV4
NMtuv6UVdLQSLHU30jV/20eSozu6cUAeGasIzBljb7GW3Cvfwk8v2TUqAUBANhSt
ZIWtZ0aFp3vdunoEHfN39MX/6s7N6SJeF5JgSTqq8upuk5kd4nIWr5NFiiie4W0A
YIxTHcHiYfO2Ks2/o+mh64r4B/76TmGLsdEPo3hezjrH5kz5b2MWrivGOcmx70SB
VSXGjDeBO4KLeF1sPXf3RULTYsoyx3bLm8slh7yYStkbCL1HWYSiCl70qGrfJP1k
ppQta+tzi0arDDJr0wMdF3HdhsrCNrvAfP/gzr720eYwPtskbpW3ZExhJwW4U6xO
w+PvYbDl2KEdbbFMVtCWgGqOxjiC64odRssOy/QVs2d+qtKKwqS5Gal5D8GPkfVN
u9eDephn+8tjaCLG3sMy7YmWI6EdpxyriOvzSEtglYWKO0IxiFUjH4slLBREhLRb
fNMP3zoTChDcoyOw3KnnN1Ue0PvFXb3BGAmEhOxe/x9wI9zbr/udrzdswqYEqUl8
fJTFCN92WxezszIwyhbmj+MsRuMxiV/IfOvNyCJgj4vrNy6PqrP8lgOoOfCEcxL7
AeDbjzKMLIRnvHUTtQJc+WPwkGZCJn8ZJiz2eQIxA9pePA==
-----END CERTIFICATE-----
